target datalayout = "e-m:e-p270:32:32-p271:32:32-p272:64:64-i64:64-i128:128-f80:128-n8:16:32:64-S128"
target triple = "x86_64-pc-linux-gnu"

%struct.uv_udp_s = type { ptr, ptr, i32, ptr, [2 x ptr], %union.anon, ptr, i32, i64, i64, ptr, ptr, %struct.uv__io_s, [2 x ptr], [2 x ptr] }
%union.anon = type { [4 x ptr] }
%struct.uv__io_s = type { ptr, [2 x ptr], [2 x ptr], i32, i32, i32 }

; Function Attrs: nounwind uwtable
define internal i32 @uv__setsockopt(ptr noundef %0, i32 noundef %1, i32 noundef %2, ptr noundef %3, i32 noundef %4) #0 {
  %6 = alloca i32, align 4
  %7 = alloca ptr, align 8
  %8 = alloca i32, align 4
  %9 = alloca i32, align 4
  %10 = alloca ptr, align 8
  %11 = alloca i32, align 4
  %12 = alloca i32, align 4
  store ptr %0, ptr %7, align 8
  store i32 %1, ptr %8, align 4
  store i32 %2, ptr %9, align 4
  store ptr %3, ptr %10, align 8
  store i32 %4, ptr %11, align 4
  %13 = load ptr, ptr %7, align 8
  %14 = getelementptr inbounds %struct.uv_udp_s, ptr %13, i32 0, i32 7
  %15 = load i32, ptr %14, align 8
  %16 = and i32 %15, 4194304
  %17 = icmp ne i32 %16, 0
  br i1 %17, label %18, label %27

18:                                               ; preds = %5
  %19 = load ptr, ptr %7, align 8
  %20 = getelementptr inbounds %struct.uv_udp_s, ptr %19, i32 0, i32 12
  %21 = getelementptr inbounds %struct.uv__io_s, ptr %20, i32 0, i32 5
  %22 = load i32, ptr %21, align 8
  %23 = load i32, ptr %9, align 4
  %24 = load ptr, ptr %10, align 8
  %25 = load i32, ptr %11, align 4
  %26 = call i32 @setsockopt(i32 noundef %22, i32 noundef 41, i32 noundef %23, ptr noundef %24, i32 noundef %25) #7
  store i32 %26, ptr %12, align 4
  br label %36

27:                                               ; preds = %5
  %28 = load ptr, ptr %7, align 8
  %29 = getelementptr inbounds %struct.uv_udp_s, ptr %28, i32 0, i32 12
  %30 = getelementptr inbounds %struct.uv__io_s, ptr %29, i32 0, i32 5
  %31 = load i32, ptr %30, align 8
  %32 = load i32, ptr %8, align 4
  %33 = load ptr, ptr %10, align 8
  %34 = load i32, ptr %11, align 4
  %35 = call i32 @setsockopt(i32 noundef %31, i32 noundef 0, i32 noundef %32, ptr noundef %33, i32 noundef %34) #7
  store i32 %35, ptr %12, align 4
  br label %36

36:                                               ; preds = %27, %18
  %37 = load i32, ptr %12, align 4
  %38 = icmp ne i32 %37, 0
  br i1 %38, label %39, label %43

39:                                               ; preds = %36
  %40 = call ptr @__errno_location() #8
  %41 = load i32, ptr %40, align 4
  %42 = sub nsw i32 0, %41
  store i32 %42, ptr %6, align 4
  br label %44

43:                                               ; preds = %36
  store i32 0, ptr %6, align 4
  br label %44

44:                                               ; preds = %43, %39
  %45 = load i32, ptr %6, align 4
  ret i32 %45
}

; Function Attrs: nounwind uwtable
define internal i32 @uv__setsockopt_maybe_char(ptr noundef %0, i32 noundef %1, i32 noundef %2, i32 noundef %3) #0 {
  %5 = alloca i32, align 4
  %6 = alloca ptr, align 8
  %7 = alloca i32, align 4
  %8 = alloca i32, align 4
  %9 = alloca i32, align 4
  %10 = alloca i32, align 4
  store ptr %0, ptr %6, align 8
  store i32 %1, ptr %7, align 4
  store i32 %2, ptr %8, align 4
  store i32 %3, ptr %9, align 4
  %11 = load i32, ptr %9, align 4
  store i32 %11, ptr %10, align 4
  %12 = load i32, ptr %9, align 4
  %13 = icmp slt i32 %12, 0
  br i1 %13, label %17, label %14

14:                                               ; preds = %4
  %15 = load i32, ptr %9, align 4
  %16 = icmp sgt i32 %15, 255
  br i1 %16, label %17, label %18

17:                                               ; preds = %14, %4
  store i32 -22, ptr %5, align 4
  br label %23

18:                                               ; preds = %14
  %19 = load ptr, ptr %6, align 8
  %20 = load i32, ptr %7, align 4
  %21 = load i32, ptr %8, align 4
  %22 = call i32 @uv__setsockopt(ptr noundef %19, i32 noundef %20, i32 noundef %21, ptr noundef %10, i32 noundef 4)
  store i32 %22, ptr %5, align 4
  br label %23

23:                                               ; preds = %18, %17
  %24 = load i32, ptr %5, align 4
  ret i32 %24
}

; Function Attrs: nounwind uwtable
define dso_local i32 @uv_udp_set_multicast_ttl(ptr noundef %0, i32 noundef %1) #0 {
  %3 = alloca ptr, align 8
  %4 = alloca i32, align 4
  store ptr %0, ptr %3, align 8
  store i32 %1, ptr %4, align 4
  %5 = load ptr, ptr %3, align 8
  %6 = load i32, ptr %4, align 4
  %7 = call i32 @uv__setsockopt_maybe_char(ptr noundef %5, i32 noundef 33, i32 noundef 18, i32 noundef %6)
  ret i32 %7
}